target datalayout = "e-m:e-p270:32:32-p271:32:32-p272:64:64-i64:64-i128:128-f80:128-n8:16:32:64-S128"
target triple = "x86_64-pc-linux-gnu"

%struct.AVFormatContext = type { ptr, ptr, ptr, ptr, ptr, i32, i32, ptr, i32, ptr, i32, ptr, ptr, i64, i64, i64, i32, i32, i32, i64, i64, ptr, i32, i32, ptr, i32, i32, i32, i32, ptr, i64, i32, i32, %struct.AVIOInterruptCB, i32, i32, i32, i32, i64, i32, i32, i32, i32, i32, i32, i32, i32, i32, i32, i32, i32, i64, i32, i32, i32, i32, i32, ptr, ptr, ptr, ptr, i32, ptr, ptr, ptr, ptr, i32, ptr, ptr, i64, ptr, ptr, ptr, i64 }
%struct.AVIOInterruptCB = type { ptr, ptr }
%struct.AVStream = type { ptr, i32, i32, ptr, ptr, %struct.AVRational, i64, i64, i64, i32, i32, %struct.AVRational, ptr, %struct.AVRational, %struct.AVPacket, i32, %struct.AVRational, i32 }
%struct.AVPacket = type { ptr, i64, i64, ptr, i32, i32, i32, ptr, i32, i64, i64, ptr, ptr, %struct.AVRational }
%struct.AVRational = type { i32, i32 }
%struct.AVCodecParameters = type { i32, i32, i32, ptr, i32, ptr, i32, i32, i64, i32, i32, i32, i32, i32, i32, %struct.AVRational, %struct.AVRational, i32, i32, i32, i32, i32, i32, i32, %struct.AVChannelLayout, i32, i32, i32, i32, i32, i32 }
%struct.AVChannelLayout = type { i32, i32, %union.anon.0, ptr }
%union.anon.0 = type { i64 }
%struct.Codec2Context = type { ptr, i32, i32 }

; Function Attrs: nounwind uwtable
define internal i32 @codec2_read_packet(ptr noundef %0, ptr noundef %1) #0 {
  %3 = alloca i32, align 4
  %4 = alloca ptr, align 8
  %5 = alloca ptr, align 8
  %6 = alloca ptr, align 8
  %7 = alloca ptr, align 8
  %8 = alloca i32, align 4
  %9 = alloca i32, align 4
  %10 = alloca i32, align 4
  %11 = alloca i32, align 4
  %12 = alloca i32, align 4
  %13 = alloca i32, align 4
  store ptr %0, ptr %4, align 8, !tbaa !14
  store ptr %1, ptr %5, align 8, !tbaa !49
  call void @llvm.lifetime.start.p0(i64 8, ptr %6) #7
  %14 = load ptr, ptr %4, align 8, !tbaa !14
  %15 = getelementptr inbounds nuw %struct.AVFormatContext, ptr %14, i32 0, i32 3
  %16 = load ptr, ptr %15, align 8, !tbaa !50
  store ptr %16, ptr %6, align 8, !tbaa !51
  call void @llvm.lifetime.start.p0(i64 8, ptr %7) #7
  %17 = load ptr, ptr %4, align 8, !tbaa !14
  %18 = getelementptr inbounds nuw %struct.AVFormatContext, ptr %17, i32 0, i32 7
  %19 = load ptr, ptr %18, align 8, !tbaa !52
  %20 = getelementptr inbounds ptr, ptr %19, i64 0
  %21 = load ptr, ptr %20, align 8, !tbaa !16
  store ptr %21, ptr %7, align 8, !tbaa !16
  call void @llvm.lifetime.start.p0(i64 4, ptr %8) #7
  call void @llvm.lifetime.start.p0(i64 4, ptr %9) #7
  call void @llvm.lifetime.start.p0(i64 4, ptr %10) #7
  call void @llvm.lifetime.start.p0(i64 4, ptr %11) #7
  call void @llvm.lifetime.start.p0(i64 4, ptr %12) #7
  %22 = load ptr, ptr %7, align 8, !tbaa !16
  %23 = getelementptr inbounds nuw %struct.AVStream, ptr %22, i32 0, i32 3
  %24 = load ptr, ptr %23, align 8, !tbaa !33
  %25 = getelementptr inbounds nuw %struct.AVCodecParameters, ptr %24, i32 0, i32 26
  %26 = load i32, ptr %25, align 4, !tbaa !53
  store i32 %26, ptr %11, align 4, !tbaa !40
  %27 = load ptr, ptr %7, align 8, !tbaa !16
  %28 = getelementptr inbounds nuw %struct.AVStream, ptr %27, i32 0, i32 3
  %29 = load ptr, ptr %28, align 8, !tbaa !33
  %30 = getelementptr inbounds nuw %struct.AVCodecParameters, ptr %29, i32 0, i32 27
  %31 = load i32, ptr %30, align 8, !tbaa !54
  store i32 %31, ptr %12, align 4, !tbaa !40
  %32 = load i32, ptr %11, align 4, !tbaa !40
  %33 = icmp sle i32 %32, 0
  br i1 %33, label %42, label %34

34:                                               ; preds = %2
  %35 = load i32, ptr %12, align 4, !tbaa !40
  %36 = icmp sle i32 %35, 0
  br i1 %36, label %42, label %37

37:                                               ; preds = %34
  %38 = load ptr, ptr %6, align 8, !tbaa !51
  %39 = getelementptr inbounds nuw %struct.Codec2Context, ptr %38, i32 0, i32 2
  %40 = load i32, ptr %39, align 4, !tbaa !55
  %41 = icmp sle i32 %40, 0
  br i1 %41, label %42, label %43

42:                                               ; preds = %37, %34, %2
  store i32 -22, ptr %3, align 4
  store i32 1, ptr %13, align 4
  br label %70

43:                                               ; preds = %37
  %44 = load ptr, ptr %6, align 8, !tbaa !51
  %45 = getelementptr inbounds nuw %struct.Codec2Context, ptr %44, i32 0, i32 2
  %46 = load i32, ptr %45, align 4, !tbaa !55
  %47 = load i32, ptr %11, align 4, !tbaa !40
  %48 = mul nsw i32 %46, %47
  store i32 %48, ptr %9, align 4, !tbaa !40
  %49 = load ptr, ptr %4, align 8, !tbaa !14
  %50 = getelementptr inbounds nuw %struct.AVFormatContext, ptr %49, i32 0, i32 4
  %51 = load ptr, ptr %50, align 8, !tbaa !18
  %52 = load ptr, ptr %5, align 8, !tbaa !49
  %53 = load i32, ptr %9, align 4, !tbaa !40
  %54 = call i32 @av_get_packet(ptr noundef %51, ptr noundef %52, i32 noundef %53)
  store i32 %54, ptr %8, align 4, !tbaa !40
  %55 = load i32, ptr %8, align 4, !tbaa !40
  %56 = icmp slt i32 %55, 0
  br i1 %56, label %57, label %59

57:                                               ; preds = %43
  %58 = load i32, ptr %8, align 4, !tbaa !40
  store i32 %58, ptr %3, align 4
  store i32 1, ptr %13, align 4
  br label %70

59:                                               ; preds = %43
  %60 = load i32, ptr %8, align 4, !tbaa !40
  %61 = load i32, ptr %11, align 4, !tbaa !40
  %62 = sdiv i32 %60, %61
  store i32 %62, ptr %10, align 4, !tbaa !40
  %63 = load i32, ptr %10, align 4, !tbaa !40
  %64 = load i32, ptr %12, align 4, !tbaa !40
  %65 = mul nsw i32 %63, %64
  %66 = sext i32 %65 to i64
  %67 = load ptr, ptr %5, align 8, !tbaa !49
  %68 = getelementptr inbounds nuw %struct.AVPacket, ptr %67, i32 0, i32 9
  store i64 %66, ptr %68, align 8, !tbaa !57
  %69 = load i32, ptr %8, align 4, !tbaa !40
  store i32 %69, ptr %3, align 4
  store i32 1, ptr %13, align 4
  br label %70

70:                                               ; preds = %59, %57, %42
  call void @llvm.lifetime.end.p0(i64 4, ptr %12) #7
  call void @llvm.lifetime.end.p0(i64 4, ptr %11) #7
  call void @llvm.lifetime.end.p0(i64 4, ptr %10) #7
  call void @llvm.lifetime.end.p0(i64 4, ptr %9) #7
  call void @llvm.lifetime.end.p0(i64 4, ptr %8) #7
  call void @llvm.lifetime.end.p0(i64 8, ptr %7) #7
  call void @llvm.lifetime.end.p0(i64 8, ptr %6) #7
  %71 = load i32, ptr %3, align 4
  ret i32 %71
}