; Function Attrs: nounwind uwtable
define internal i32 @codec2_read_packet(ptr noundef readonly captures(none) %0, ptr noundef %1) #1 {
  %3 = getelementptr inbounds nuw i8, ptr %0, i64 48
  %4 = load ptr, ptr %3, align 8, !tbaa !42
  %5 = load ptr, ptr %4, align 8, !tbaa !43
  %6 = getelementptr inbounds nuw i8, ptr %5, i64 16
  %7 = load ptr, ptr %6, align 8, !tbaa !27
  %8 = getelementptr inbounds nuw i8, ptr %7, i64 156
  %9 = load i32, ptr %8, align 4, !tbaa !45
  %10 = getelementptr inbounds nuw i8, ptr %7, i64 160
  %11 = load i32, ptr %10, align 8, !tbaa !46
  %12 = icmp slt i32 %9, 1
  %13 = icmp slt i32 %11, 1
  %or.cond = select i1 %12, i1 true, i1 %13
  br i1 %or.cond, label %31, label %14

14:                                               ; preds = %2
  %15 = getelementptr inbounds nuw i8, ptr %0, i64 24
  %16 = load ptr, ptr %15, align 8, !tbaa !47
  %17 = getelementptr inbounds nuw i8, ptr %16, i64 12
  %18 = load i32, ptr %17, align 4, !tbaa !48
  %19 = icmp slt i32 %18, 1
  br i1 %19, label %31, label %20

20:                                               ; preds = %14
  %21 = mul nuw nsw i32 %18, %9
  %22 = getelementptr inbounds nuw i8, ptr %0, i64 32
  %23 = load ptr, ptr %22, align 8, !tbaa !12
  %24 = tail call i32 @av_get_packet(ptr noundef %23, ptr noundef %1, i32 noundef %21) #4
  %25 = icmp slt i32 %24, 0
  br i1 %25, label %31, label %26

26:                                               ; preds = %20
  %27 = udiv i32 %24, %9
  %28 = mul nuw nsw i32 %27, %11
  %29 = zext nneg i32 %28 to i64
  %30 = getelementptr inbounds nuw i8, ptr %1, i64 64
  store i64 %29, ptr %30, align 8, !tbaa !50
  br label %31

31:                                               ; preds = %20, %2, %14, %26
  %.0 = phi i32 [ %24, %26 ], [ -22, %14 ], [ -22, %2 ], [ %24, %20 ]
  ret i32 %.0
}